target datalayout = "e-m:e-p270:32:32-p271:32:32-p272:64:64-i64:64-i128:128-f80:128-n8:16:32:64-S128"
target triple = "x86_64-pc-linux-gnu"

@ps_decorrelate_c.a = internal constant [3 x i32] [i32 1398954752, i32 1212722944, i32 1051282688], align 4

; Function Attrs: nounwind uwtable
define internal void @ps_decorrelate_c(ptr noundef %0, ptr noundef %1, ptr noundef %2, ptr noundef %3, ptr noundef %4, ptr noundef %5, i32 noundef %6, i32 noundef %7) #1 {
  %9 = alloca ptr, align 8
  %10 = alloca ptr, align 8
  %11 = alloca ptr, align 8
  %12 = alloca ptr, align 8
  %13 = alloca ptr, align 8
  %14 = alloca ptr, align 8
  %15 = alloca i32, align 4
  %16 = alloca i32, align 4
  %17 = alloca [3 x i32], align 4
  %18 = alloca i32, align 4
  %19 = alloca i32, align 4
  %20 = alloca i32, align 4
  %21 = alloca i32, align 4
  %22 = alloca i32, align 4
  %23 = alloca i32, align 4
  %24 = alloca i32, align 4
  %25 = alloca i32, align 4
  %26 = alloca i32, align 4
  %27 = alloca i32, align 4
  %28 = alloca i32, align 4
  %29 = alloca i32, align 4
  store ptr %0, ptr %9, align 8, !tbaa !17
  store ptr %1, ptr %10, align 8, !tbaa !17
  store ptr %2, ptr %11, align 8, !tbaa !17
  store ptr %3, ptr %12, align 8, !tbaa !17
  store ptr %4, ptr %13, align 8, !tbaa !17
  store ptr %5, ptr %14, align 8, !tbaa !17
  store i32 %6, ptr %15, align 4, !tbaa !19
  store i32 %7, ptr %16, align 4, !tbaa !19
  call void @llvm.lifetime.start.p0(i64 12, ptr %17) #3
  call void @llvm.lifetime.start.p0(i64 4, ptr %18) #3
  call void @llvm.lifetime.start.p0(i64 4, ptr %19) #3
  store i32 0, ptr %18, align 4, !tbaa !19
  br label %30

30:                                               ; preds = %48, %8
  %31 = load i32, ptr %18, align 4, !tbaa !19
  %32 = icmp slt i32 %31, 3
  br i1 %32, label %33, label %51

33:                                               ; preds = %30
  %34 = load i32, ptr %18, align 4, !tbaa !19
  %35 = sext i32 %34 to i64
  %36 = getelementptr inbounds [3 x i32], ptr @ps_decorrelate_c.a, i64 0, i64 %35
  %37 = load i32, ptr %36, align 4, !tbaa !19
  %38 = sext i32 %37 to i64
  %39 = load i32, ptr %15, align 4, !tbaa !19
  %40 = sext i32 %39 to i64
  %41 = mul nsw i64 %38, %40
  %42 = add nsw i64 %41, 536870912
  %43 = ashr i64 %42, 30
  %44 = trunc i64 %43 to i32
  %45 = load i32, ptr %18, align 4, !tbaa !19
  %46 = sext i32 %45 to i64
  %47 = getelementptr inbounds [3 x i32], ptr %17, i64 0, i64 %46
  store i32 %44, ptr %47, align 4, !tbaa !19
  br label %48

48:                                               ; preds = %33
  %49 = load i32, ptr %18, align 4, !tbaa !19
  %50 = add nsw i32 %49, 1
  store i32 %50, ptr %18, align 4, !tbaa !19
  br label %30, !llvm.loop !33

51:                                               ; preds = %30
  store i32 0, ptr %19, align 4, !tbaa !19
  br label %52

52:                                               ; preds = %293, %51
  %53 = load i32, ptr %19, align 4, !tbaa !19
  %54 = load i32, ptr %16, align 4, !tbaa !19
  %55 = icmp slt i32 %53, %54
  br i1 %55, label %56, label %296

56:                                               ; preds = %52
  call void @llvm.lifetime.start.p0(i64 4, ptr %20) #3
  %57 = load ptr, ptr %10, align 8, !tbaa !17
  %58 = load i32, ptr %19, align 4, !tbaa !19
  %59 = sext i32 %58 to i64
  %60 = getelementptr inbounds [2 x i32], ptr %57, i64 %59
  %61 = getelementptr inbounds [2 x i32], ptr %60, i64 0, i64 0
  %62 = load i32, ptr %61, align 4, !tbaa !19
  %63 = sext i32 %62 to i64
  %64 = load ptr, ptr %12, align 8, !tbaa !17
  %65 = getelementptr inbounds i32, ptr %64, i64 0
  %66 = load i32, ptr %65, align 4, !tbaa !19
  %67 = sext i32 %66 to i64
  %68 = mul nsw i64 %63, %67
  %69 = load ptr, ptr %10, align 8, !tbaa !17
  %70 = load i32, ptr %19, align 4, !tbaa !19
  %71 = sext i32 %70 to i64
  %72 = getelementptr inbounds [2 x i32], ptr %69, i64 %71
  %73 = getelementptr inbounds [2 x i32], ptr %72, i64 0, i64 1
  %74 = load i32, ptr %73, align 4, !tbaa !19
  %75 = sext i32 %74 to i64
  %76 = load ptr, ptr %12, align 8, !tbaa !17
  %77 = getelementptr inbounds i32, ptr %76, i64 1
  %78 = load i32, ptr %77, align 4, !tbaa !19
  %79 = sext i32 %78 to i64
  %80 = mul nsw i64 %75, %79
  %81 = sub nsw i64 %68, %80
  %82 = add nsw i64 %81, 536870912
  %83 = ashr i64 %82, 30
  %84 = trunc i64 %83 to i32
  store i32 %84, ptr %20, align 4, !tbaa !19
  call void @llvm.lifetime.start.p0(i64 4, ptr %21) #3
  %85 = load ptr, ptr %10, align 8, !tbaa !17
  %86 = load i32, ptr %19, align 4, !tbaa !19
  %87 = sext i32 %86 to i64
  %88 = getelementptr inbounds [2 x i32], ptr %85, i64 %87
  %89 = getelementptr inbounds [2 x i32], ptr %88, i64 0, i64 0
  %90 = load i32, ptr %89, align 4, !tbaa !19
  %91 = sext i32 %90 to i64
  %92 = load ptr, ptr %12, align 8, !tbaa !17
  %93 = getelementptr inbounds i32, ptr %92, i64 1
  %94 = load i32, ptr %93, align 4, !tbaa !19
  %95 = sext i32 %94 to i64
  %96 = mul nsw i64 %91, %95
  %97 = load ptr, ptr %10, align 8, !tbaa !17
  %98 = load i32, ptr %19, align 4, !tbaa !19
  %99 = sext i32 %98 to i64
  %100 = getelementptr inbounds [2 x i32], ptr %97, i64 %99
  %101 = getelementptr inbounds [2 x i32], ptr %100, i64 0, i64 1
  %102 = load i32, ptr %101, align 4, !tbaa !19
  %103 = sext i32 %102 to i64
  %104 = load ptr, ptr %12, align 8, !tbaa !17
  %105 = getelementptr inbounds i32, ptr %104, i64 0
  %106 = load i32, ptr %105, align 4, !tbaa !19
  %107 = sext i32 %106 to i64
  %108 = mul nsw i64 %103, %107
  %109 = add nsw i64 %96, %108
  %110 = add nsw i64 %109, 536870912
  %111 = ashr i64 %110, 30
  %112 = trunc i64 %111 to i32
  store i32 %112, ptr %21, align 4, !tbaa !19
  store i32 0, ptr %18, align 4, !tbaa !19
  br label %113

113:                                              ; preds = %255, %56
  %114 = load i32, ptr %18, align 4, !tbaa !19
  %115 = icmp slt i32 %114, 3
  br i1 %115, label %116, label %258

116:                                              ; preds = %113
  call void @llvm.lifetime.start.p0(i64 4, ptr %22) #3
  %117 = load i32, ptr %18, align 4, !tbaa !19
  %118 = sext i32 %117 to i64
  %119 = getelementptr inbounds [3 x i32], ptr %17, i64 0, i64 %118
  %120 = load i32, ptr %119, align 4, !tbaa !19
  %121 = sext i32 %120 to i64
  %122 = load i32, ptr %20, align 4, !tbaa !19
  %123 = sext i32 %122 to i64
  %124 = mul nsw i64 %121, %123
  %125 = add nsw i64 %124, 1073741824
  %126 = ashr i64 %125, 31
  %127 = trunc i64 %126 to i32
  store i32 %127, ptr %22, align 4, !tbaa !19
  call void @llvm.lifetime.start.p0(i64 4, ptr %23) #3
  %128 = load i32, ptr %18, align 4, !tbaa !19
  %129 = sext i32 %128 to i64
  %130 = getelementptr inbounds [3 x i32], ptr %17, i64 0, i64 %129
  %131 = load i32, ptr %130, align 4, !tbaa !19
  %132 = sext i32 %131 to i64
  %133 = load i32, ptr %21, align 4, !tbaa !19
  %134 = sext i32 %133 to i64
  %135 = mul nsw i64 %132, %134
  %136 = add nsw i64 %135, 1073741824
  %137 = ashr i64 %136, 31
  %138 = trunc i64 %137 to i32
  store i32 %138, ptr %23, align 4, !tbaa !19
  call void @llvm.lifetime.start.p0(i64 4, ptr %24) #3
  %139 = load ptr, ptr %11, align 8, !tbaa !17
  %140 = load i32, ptr %18, align 4, !tbaa !19
  %141 = sext i32 %140 to i64
  %142 = getelementptr inbounds [37 x [2 x i32]], ptr %139, i64 %141
  %143 = load i32, ptr %19, align 4, !tbaa !19
  %144 = add nsw i32 %143, 2
  %145 = load i32, ptr %18, align 4, !tbaa !19
  %146 = sub nsw i32 %144, %145
  %147 = sext i32 %146 to i64
  %148 = getelementptr inbounds [37 x [2 x i32]], ptr %142, i64 0, i64 %147
  %149 = getelementptr inbounds [2 x i32], ptr %148, i64 0, i64 0
  %150 = load i32, ptr %149, align 4, !tbaa !19
  store i32 %150, ptr %24, align 4, !tbaa !19
  call void @llvm.lifetime.start.p0(i64 4, ptr %25) #3
  %151 = load ptr, ptr %11, align 8, !tbaa !17
  %152 = load i32, ptr %18, align 4, !tbaa !19
  %153 = sext i32 %152 to i64
  %154 = getelementptr inbounds [37 x [2 x i32]], ptr %151, i64 %153
  %155 = load i32, ptr %19, align 4, !tbaa !19
  %156 = add nsw i32 %155, 2
  %157 = load i32, ptr %18, align 4, !tbaa !19
  %158 = sub nsw i32 %156, %157
  %159 = sext i32 %158 to i64
  %160 = getelementptr inbounds [37 x [2 x i32]], ptr %154, i64 0, i64 %159
  %161 = getelementptr inbounds [2 x i32], ptr %160, i64 0, i64 1
  %162 = load i32, ptr %161, align 4, !tbaa !19
  store i32 %162, ptr %25, align 4, !tbaa !19
  call void @llvm.lifetime.start.p0(i64 4, ptr %26) #3
  %163 = load ptr, ptr %13, align 8, !tbaa !17
  %164 = load i32, ptr %18, align 4, !tbaa !19
  %165 = sext i32 %164 to i64
  %166 = getelementptr inbounds [2 x i32], ptr %163, i64 %165
  %167 = getelementptr inbounds [2 x i32], ptr %166, i64 0, i64 0
  %168 = load i32, ptr %167, align 4, !tbaa !19
  store i32 %168, ptr %26, align 4, !tbaa !19
  call void @llvm.lifetime.start.p0(i64 4, ptr %27) #3
  %169 = load ptr, ptr %13, align 8, !tbaa !17
  %170 = load i32, ptr %18, align 4, !tbaa !19
  %171 = sext i32 %170 to i64
  %172 = getelementptr inbounds [2 x i32], ptr %169, i64 %171
  %173 = getelementptr inbounds [2 x i32], ptr %172, i64 0, i64 1
  %174 = load i32, ptr %173, align 4, !tbaa !19
  store i32 %174, ptr %27, align 4, !tbaa !19
  call void @llvm.lifetime.start.p0(i64 4, ptr %28) #3
  %175 = load i32, ptr %20, align 4, !tbaa !19
  store i32 %175, ptr %28, align 4, !tbaa !19
  call void @llvm.lifetime.start.p0(i64 4, ptr %29) #3
  %176 = load i32, ptr %21, align 4, !tbaa !19
  store i32 %176, ptr %29, align 4, !tbaa !19
  %177 = load i32, ptr %24, align 4, !tbaa !19
  %178 = sext i32 %177 to i64
  %179 = load i32, ptr %26, align 4, !tbaa !19
  %180 = sext i32 %179 to i64
  %181 = mul nsw i64 %178, %180
  %182 = load i32, ptr %25, align 4, !tbaa !19
  %183 = sext i32 %182 to i64
  %184 = load i32, ptr %27, align 4, !tbaa !19
  %185 = sext i32 %184 to i64
  %186 = mul nsw i64 %183, %185
  %187 = sub nsw i64 %181, %186
  %188 = add nsw i64 %187, 536870912
  %189 = ashr i64 %188, 30
  %190 = trunc i64 %189 to i32
  store i32 %190, ptr %20, align 4, !tbaa !19
  %191 = load i32, ptr %22, align 4, !tbaa !19
  %192 = load i32, ptr %20, align 4, !tbaa !19
  %193 = sub i32 %192, %191
  store i32 %193, ptr %20, align 4, !tbaa !19
  %194 = load i32, ptr %24, align 4, !tbaa !19
  %195 = sext i32 %194 to i64
  %196 = load i32, ptr %27, align 4, !tbaa !19
  %197 = sext i32 %196 to i64
  %198 = mul nsw i64 %195, %197
  %199 = load i32, ptr %25, align 4, !tbaa !19
  %200 = sext i32 %199 to i64
  %201 = load i32, ptr %26, align 4, !tbaa !19
  %202 = sext i32 %201 to i64
  %203 = mul nsw i64 %200, %202
  %204 = add nsw i64 %198, %203
  %205 = add nsw i64 %204, 536870912
  %206 = ashr i64 %205, 30
  %207 = trunc i64 %206 to i32
  store i32 %207, ptr %21, align 4, !tbaa !19
  %208 = load i32, ptr %23, align 4, !tbaa !19
  %209 = load i32, ptr %21, align 4, !tbaa !19
  %210 = sub i32 %209, %208
  store i32 %210, ptr %21, align 4, !tbaa !19
  %211 = load i32, ptr %28, align 4, !tbaa !19
  %212 = load i32, ptr %18, align 4, !tbaa !19
  %213 = sext i32 %212 to i64
  %214 = getelementptr inbounds [3 x i32], ptr %17, i64 0, i64 %213
  %215 = load i32, ptr %214, align 4, !tbaa !19
  %216 = sext i32 %215 to i64
  %217 = load i32, ptr %20, align 4, !tbaa !19
  %218 = sext i32 %217 to i64
  %219 = mul nsw i64 %216, %218
  %220 = add nsw i64 %219, 1073741824
  %221 = ashr i64 %220, 31
  %222 = trunc i64 %221 to i32
  %223 = add i32 %211, %222
  %224 = load ptr, ptr %11, align 8, !tbaa !17
  %225 = load i32, ptr %18, align 4, !tbaa !19
  %226 = sext i32 %225 to i64
  %227 = getelementptr inbounds [37 x [2 x i32]], ptr %224, i64 %226
  %228 = load i32, ptr %19, align 4, !tbaa !19
  %229 = add nsw i32 %228, 5
  %230 = sext i32 %229 to i64
  %231 = getelementptr inbounds [37 x [2 x i32]], ptr %227, i64 0, i64 %230
  %232 = getelementptr inbounds [2 x i32], ptr %231, i64 0, i64 0
  store i32 %223, ptr %232, align 4, !tbaa !19
  %233 = load i32, ptr %29, align 4, !tbaa !19
  %234 = load i32, ptr %18, align 4, !tbaa !19
  %235 = sext i32 %234 to i64
  %236 = getelementptr inbounds [3 x i32], ptr %17, i64 0, i64 %235
  %237 = load i32, ptr %236, align 4, !tbaa !19
  %238 = sext i32 %237 to i64
  %239 = load i32, ptr %21, align 4, !tbaa !19
  %240 = sext i32 %239 to i64
  %241 = mul nsw i64 %238, %240
  %242 = add nsw i64 %241, 1073741824
  %243 = ashr i64 %242, 31
  %244 = trunc i64 %243 to i32
  %245 = add i32 %233, %244
  %246 = load ptr, ptr %11, align 8, !tbaa !17
  %247 = load i32, ptr %18, align 4, !tbaa !19
  %248 = sext i32 %247 to i64
  %249 = getelementptr inbounds [37 x [2 x i32]], ptr %246, i64 %248
  %250 = load i32, ptr %19, align 4, !tbaa !19
  %251 = add nsw i32 %250, 5
  %252 = sext i32 %251 to i64
  %253 = getelementptr inbounds [37 x [2 x i32]], ptr %249, i64 0, i64 %252
  %254 = getelementptr inbounds [2 x i32], ptr %253, i64 0, i64 1
  store i32 %245, ptr %254, align 4, !tbaa !19
  call void @llvm.lifetime.end.p0(i64 4, ptr %29) #3
  call void @llvm.lifetime.end.p0(i64 4, ptr %28) #3
  call void @llvm.lifetime.end.p0(i64 4, ptr %27) #3
  call void @llvm.lifetime.end.p0(i64 4, ptr %26) #3
  call void @llvm.lifetime.end.p0(i64 4, ptr %25) #3
  call void @llvm.lifetime.end.p0(i64 4, ptr %24) #3
  call void @llvm.lifetime.end.p0(i64 4, ptr %23) #3
  call void @llvm.lifetime.end.p0(i64 4, ptr %22) #3
  br label %255

255:                                              ; preds = %116
  %256 = load i32, ptr %18, align 4, !tbaa !19
  %257 = add nsw i32 %256, 1
  store i32 %257, ptr %18, align 4, !tbaa !19
  br label %113, !llvm.loop !34

258:                                              ; preds = %113
  %259 = load ptr, ptr %14, align 8, !tbaa !17
  %260 = load i32, ptr %19, align 4, !tbaa !19
  %261 = sext i32 %260 to i64
  %262 = getelementptr inbounds i32, ptr %259, i64 %261
  %263 = load i32, ptr %262, align 4, !tbaa !19
  %264 = sext i32 %263 to i64
  %265 = load i32, ptr %20, align 4, !tbaa !19
  %266 = sext i32 %265 to i64
  %267 = mul nsw i64 %264, %266
  %268 = add nsw i64 %267, 32768
  %269 = ashr i64 %268, 16
  %270 = trunc i64 %269 to i32
  %271 = load ptr, ptr %9, align 8, !tbaa !17
  %272 = load i32, ptr %19, align 4, !tbaa !19
  %273 = sext i32 %272 to i64
  %274 = getelementptr inbounds [2 x i32], ptr %271, i64 %273
  %275 = getelementptr inbounds [2 x i32], ptr %274, i64 0, i64 0
  store i32 %270, ptr %275, align 4, !tbaa !19
  %276 = load ptr, ptr %14, align 8, !tbaa !17
  %277 = load i32, ptr %19, align 4, !tbaa !19
  %278 = sext i32 %277 to i64
  %279 = getelementptr inbounds i32, ptr %276, i64 %278
  %280 = load i32, ptr %279, align 4, !tbaa !19
  %281 = sext i32 %280 to i64
  %282 = load i32, ptr %21, align 4, !tbaa !19
  %283 = sext i32 %282 to i64
  %284 = mul nsw i64 %281, %283
  %285 = add nsw i64 %284, 32768
  %286 = ashr i64 %285, 16
  %287 = trunc i64 %286 to i32
  %288 = load ptr, ptr %9, align 8, !tbaa !17
  %289 = load i32, ptr %19, align 4, !tbaa !19
  %290 = sext i32 %289 to i64
  %291 = getelementptr inbounds [2 x i32], ptr %288, i64 %290
  %292 = getelementptr inbounds [2 x i32], ptr %291, i64 0, i64 1
  store i32 %287, ptr %292, align 4, !tbaa !19
  call void @llvm.lifetime.end.p0(i64 4, ptr %21) #3
  call void @llvm.lifetime.end.p0(i64 4, ptr %20) #3
  br label %293

293:                                              ; preds = %258
  %294 = load i32, ptr %19, align 4, !tbaa !19
  %295 = add nsw i32 %294, 1
  store i32 %295, ptr %19, align 4, !tbaa !19
  br label %52, !llvm.loop !35

296:                                              ; preds = %52
  call void @llvm.lifetime.end.p0(i64 4, ptr %19) #3
  call void @llvm.lifetime.end.p0(i64 4, ptr %18) #3
  call void @llvm.lifetime.end.p0(i64 12, ptr %17) #3
  ret void
}