; Function Attrs: nofree norecurse nosync nounwind memory(argmem: readwrite) uwtable
define internal void @ps_decorrelate_c(ptr noundef writeonly captures(none) %0, ptr noundef readonly captures(none) %1, ptr noundef captures(none) %2, ptr noundef readonly captures(none) %3, ptr noundef readonly captures(none) %4, ptr noundef readonly captures(none) %5, i32 noundef %6, i32 noundef %7) #1 {
  %9 = alloca [3 x i32], align 4
  call void @llvm.lifetime.start.p0(i64 12, ptr nonnull %9) #3
  %10 = sext i32 %6 to i64
  br label %13

.preheader:                                       ; preds = %13
  %11 = icmp sgt i32 %7, 0
  br i1 %11, label %.lr.ph, label %._crit_edge

.lr.ph:                                           ; preds = %.preheader
  %12 = getelementptr inbounds nuw i8, ptr %3, i64 4
  %wide.trip.count = zext nneg i32 %7 to i64
  br label %22

13:                                               ; preds = %8, %13
  %indvars.iv = phi i64 [ 0, %8 ], [ %indvars.iv.next, %13 ]
  %14 = getelementptr inbounds nuw [3 x i32], ptr @ps_decorrelate_c.a, i64 0, i64 %indvars.iv
  %15 = load i32, ptr %14, align 4, !tbaa !15
  %16 = sext i32 %15 to i64
  %17 = mul nsw i64 %16, %10
  %18 = add nsw i64 %17, 536870912
  %19 = lshr i64 %18, 30
  %20 = trunc i64 %19 to i32
  %21 = getelementptr inbounds nuw [3 x i32], ptr %9, i64 0, i64 %indvars.iv
  store i32 %20, ptr %21, align 4, !tbaa !15
  %indvars.iv.next = add nuw nsw i64 %indvars.iv, 1
  %exitcond.not = icmp eq i64 %indvars.iv.next, 3
  br i1 %exitcond.not, label %.preheader, label %13, !llvm.loop !29

22:                                               ; preds = %.lr.ph, %102
  %indvars.iv88 = phi i64 [ 0, %.lr.ph ], [ %indvars.iv.next89, %102 ]
  %23 = getelementptr inbounds nuw [2 x i32], ptr %1, i64 %indvars.iv88
  %24 = load i32, ptr %23, align 4, !tbaa !15
  %25 = sext i32 %24 to i64
  %26 = load i32, ptr %3, align 4, !tbaa !15
  %27 = sext i32 %26 to i64
  %28 = mul nsw i64 %27, %25
  %29 = getelementptr inbounds nuw i8, ptr %23, i64 4
  %30 = load i32, ptr %29, align 4, !tbaa !15
  %31 = sext i32 %30 to i64
  %32 = load i32, ptr %12, align 4, !tbaa !15
  %33 = sext i32 %32 to i64
  %34 = mul nsw i64 %33, %31
  %35 = add nsw i64 %28, 536870912
  %36 = sub nsw i64 %35, %34
  %37 = lshr i64 %36, 30
  %38 = trunc i64 %37 to i32
  %39 = mul nsw i64 %33, %25
  %40 = mul nsw i64 %31, %27
  %41 = add nsw i64 %40, 536870912
  %42 = add i64 %41, %39
  %43 = lshr i64 %42, 30
  %44 = trunc i64 %43 to i32
  %45 = add nuw nsw i64 %indvars.iv88, 2
  %46 = add nuw nsw i64 %indvars.iv88, 5
  br label %47

47:                                               ; preds = %22, %47
  %indvars.iv84 = phi i64 [ 0, %22 ], [ %indvars.iv.next85, %47 ]
  %.07479 = phi i32 [ %38, %22 ], [ %80, %47 ]
  %.07578 = phi i32 [ %44, %22 ], [ %87, %47 ]
  %48 = getelementptr inbounds nuw [3 x i32], ptr %9, i64 0, i64 %indvars.iv84
  %49 = load i32, ptr %48, align 4, !tbaa !15
  %50 = sext i32 %49 to i64
  %51 = sext i32 %.07479 to i64
  %52 = mul nsw i64 %50, %51
  %53 = add nsw i64 %52, 1073741824
  %54 = lshr i64 %53, 31
  %55 = trunc i64 %54 to i32
  %56 = sext i32 %.07578 to i64
  %57 = mul nsw i64 %50, %56
  %58 = add nsw i64 %57, 1073741824
  %59 = lshr i64 %58, 31
  %60 = trunc i64 %59 to i32
  %61 = sub nuw nsw i64 %45, %indvars.iv84
  %62 = getelementptr inbounds nuw [37 x [2 x i32]], ptr %2, i64 %indvars.iv84, i64 %61
  %63 = load i32, ptr %62, align 4, !tbaa !15
  %64 = getelementptr inbounds nuw i8, ptr %62, i64 4
  %65 = load i32, ptr %64, align 4, !tbaa !15
  %66 = getelementptr inbounds nuw [2 x i32], ptr %4, i64 %indvars.iv84
  %67 = load i32, ptr %66, align 4, !tbaa !15
  %68 = getelementptr inbounds nuw i8, ptr %66, i64 4
  %69 = load i32, ptr %68, align 4, !tbaa !15
  %70 = sext i32 %63 to i64
  %71 = sext i32 %67 to i64
  %72 = mul nsw i64 %71, %70
  %73 = sext i32 %65 to i64
  %74 = sext i32 %69 to i64
  %75 = mul nsw i64 %74, %73
  %76 = add nsw i64 %72, 536870912
  %77 = sub nsw i64 %76, %75
  %78 = lshr i64 %77, 30
  %79 = trunc i64 %78 to i32
  %80 = sub i32 %79, %55
  %81 = mul nsw i64 %74, %70
  %82 = mul nsw i64 %71, %73
  %83 = add nsw i64 %82, 536870912
  %84 = add i64 %83, %81
  %85 = lshr i64 %84, 30
  %86 = trunc i64 %85 to i32
  %87 = sub i32 %86, %60
  %88 = sext i32 %80 to i64
  %89 = mul nsw i64 %88, %50
  %90 = add nsw i64 %89, 1073741824
  %91 = lshr i64 %90, 31
  %92 = trunc i64 %91 to i32
  %93 = add i32 %.07479, %92
  %94 = getelementptr inbounds nuw [37 x [2 x i32]], ptr %2, i64 %indvars.iv84, i64 %46
  store i32 %93, ptr %94, align 4, !tbaa !15
  %95 = sext i32 %87 to i64
  %96 = mul nsw i64 %95, %50
  %97 = add nsw i64 %96, 1073741824
  %98 = lshr i64 %97, 31
  %99 = trunc i64 %98 to i32
  %100 = add i32 %.07578, %99
  %101 = getelementptr inbounds nuw i8, ptr %94, i64 4
  store i32 %100, ptr %101, align 4, !tbaa !15
  %indvars.iv.next85 = add nuw nsw i64 %indvars.iv84, 1
  %exitcond87.not = icmp eq i64 %indvars.iv.next85, 3
  br i1 %exitcond87.not, label %102, label %47, !llvm.loop !30

102:                                              ; preds = %47
  %103 = getelementptr inbounds nuw i32, ptr %5, i64 %indvars.iv88
  %104 = load i32, ptr %103, align 4, !tbaa !15
  %105 = sext i32 %104 to i64
  %106 = mul nsw i64 %105, %88
  %107 = add nsw i64 %106, 32768
  %108 = lshr i64 %107, 16
  %109 = trunc i64 %108 to i32
  %110 = getelementptr inbounds nuw [2 x i32], ptr %0, i64 %indvars.iv88
  store i32 %109, ptr %110, align 4, !tbaa !15
  %111 = load i32, ptr %103, align 4, !tbaa !15
  %112 = sext i32 %111 to i64
  %113 = mul nsw i64 %112, %95
  %114 = add nsw i64 %113, 32768
  %115 = lshr i64 %114, 16
  %116 = trunc i64 %115 to i32
  %117 = getelementptr inbounds nuw i8, ptr %110, i64 4
  store i32 %116, ptr %117, align 4, !tbaa !15
  %indvars.iv.next89 = add nuw nsw i64 %indvars.iv88, 1
  %exitcond91.not = icmp eq i64 %indvars.iv.next89, %wide.trip.count
  br i1 %exitcond91.not, label %._crit_edge, label %22, !llvm.loop !31

._crit_edge:                                      ; preds = %102, %.preheader
  call void @llvm.lifetime.end.p0(i64 12, ptr nonnull %9) #3
  ret void
}